; ModuleID = 'source-C-CXX/35/569.c'
source_filename = "source-C-CXX/35/569.c"
target datalayout = "e-m:e-p270:32:32-p271:32:32-p272:64:64-i64:64-f80:128-n8:16:32:64-S128"
target triple = "x86_64-pc-linux-gnu"

@.str = private unnamed_addr constant [5 x i8] c"%s%s\00", align 1
@.str.1 = private unnamed_addr constant [3 x i8] c"NO\00", align 1
@.str.2 = private unnamed_addr constant [4 x i8] c"YES\00", align 1

; Function Attrs: nofree nounwind sspstrong uwtable
define dso_local void @main() local_unnamed_addr #0 {
  %1 = alloca [100 x i8], align 16
  %2 = alloca [100 x i8], align 16
  %3 = alloca [100 x i8], align 16
  %4 = getelementptr inbounds [100 x i8], [100 x i8]* %3, i64 0, i64 0
  %5 = getelementptr inbounds [100 x i8], [100 x i8]* %1, i64 0, i64 0
  call void @llvm.lifetime.start.p0i8(i64 100, i8* nonnull %5) #5
  %6 = getelementptr inbounds [100 x i8], [100 x i8]* %2, i64 0, i64 0
  call void @llvm.lifetime.start.p0i8(i64 100, i8* nonnull %6) #5
  %7 = getelementptr inbounds [100 x i8], [100 x i8]* %3, i64 0, i64 0
  call void @llvm.lifetime.start.p0i8(i64 100, i8* nonnull %7) #5
  %8 = call i32 (i8*, ...) @__isoc99_scanf(i8* getelementptr inbounds ([5 x i8], [5 x i8]* @.str, i64 0, i64 0), i8* nonnull %5, i8* nonnull %6)
  %9 = call i64 @strlen(i8* noundef nonnull %5) #6
  %10 = trunc i64 %9 to i32
  %11 = call i64 @strlen(i8* noundef nonnull %6) #6
  %12 = trunc i64 %11 to i32
  %13 = icmp eq i32 %10, %12
  br i1 %13, label %14, label %56

14:                                               ; preds = %0
  %15 = icmp sgt i32 %10, 0
  br i1 %15, label %16, label %53

16:                                               ; preds = %14
  %17 = and i64 %9, 4294967295
  call void @llvm.memset.p0i8.i64(i8* nonnull align 16 %4, i8 1, i64 %17, i1 false)
  %18 = add i64 %9, 4294967295
  %19 = and i64 %18, 4294967295
  %20 = add nuw nsw i64 %19, 1
  %21 = and i64 %9, 4294967295
  br label %22

22:                                               ; preds = %16, %45
  %23 = phi i64 [ 0, %16 ], [ %46, %45 ]
  %24 = getelementptr inbounds [100 x i8], [100 x i8]* %1, i64 0, i64 %23
  %25 = load i8, i8* %24, align 1, !tbaa !5
  br label %26

26:                                               ; preds = %22, %35
  %27 = phi i64 [ 0, %22 ], [ %36, %35 ]
  %28 = getelementptr inbounds [100 x i8], [100 x i8]* %2, i64 0, i64 %27
  %29 = load i8, i8* %28, align 1, !tbaa !5
  %30 = icmp eq i8 %25, %29
  br i1 %30, label %31, label %35

31:                                               ; preds = %26
  %32 = getelementptr inbounds [100 x i8], [100 x i8]* %3, i64 0, i64 %27
  %33 = load i8, i8* %32, align 1, !tbaa !5
  %34 = icmp eq i8 %33, 1
  br i1 %34, label %38, label %35

35:                                               ; preds = %31, %26
  %36 = add nuw nsw i64 %27, 1
  %37 = icmp eq i64 %36, %21
  br i1 %37, label %41, label %26, !llvm.loop !8

38:                                               ; preds = %31
  %39 = and i64 %27, 4294967295
  %40 = getelementptr inbounds [100 x i8], [100 x i8]* %3, i64 0, i64 %39
  store i8 0, i8* %40, align 1, !tbaa !5
  br label %41

41:                                               ; preds = %35, %38
  %42 = phi i64 [ %27, %38 ], [ %20, %35 ]
  %43 = trunc i64 %42 to i32
  %44 = icmp eq i32 %43, %10
  br i1 %44, label %48, label %45

45:                                               ; preds = %41
  %46 = add nuw nsw i64 %23, 1
  %47 = icmp eq i64 %46, %21
  br i1 %47, label %51, label %22, !llvm.loop !10

48:                                               ; preds = %41
  %49 = trunc i64 %23 to i32
  %50 = call i32 (i8*, ...) @printf(i8* nonnull dereferenceable(1) getelementptr inbounds ([3 x i8], [3 x i8]* @.str.1, i64 0, i64 0))
  br label %53

51:                                               ; preds = %45
  %52 = trunc i64 %20 to i32
  br label %53

53:                                               ; preds = %14, %51, %48
  %54 = phi i32 [ %49, %48 ], [ %52, %51 ], [ 0, %14 ]
  %55 = icmp eq i32 %54, %10
  br i1 %55, label %56, label %59

56:                                               ; preds = %53, %0
  %57 = phi i8* [ getelementptr inbounds ([3 x i8], [3 x i8]* @.str.1, i64 0, i64 0), %0 ], [ getelementptr inbounds ([4 x i8], [4 x i8]* @.str.2, i64 0, i64 0), %53 ]
  %58 = call i32 (i8*, ...) @printf(i8* nonnull dereferenceable(1) %57)
  br label %59

59:                                               ; preds = %56, %53
  call void @llvm.lifetime.end.p0i8(i64 100, i8* nonnull %7) #5
  call void @llvm.lifetime.end.p0i8(i64 100, i8* nonnull %6) #5
  call void @llvm.lifetime.end.p0i8(i64 100, i8* nonnull %5) #5
  ret void
}

; Function Attrs: argmemonly mustprogress nofree nosync nounwind willreturn
declare void @llvm.lifetime.start.p0i8(i64 immarg, i8* nocapture) #1

; Function Attrs: nofree nounwind
declare noundef i32 @__isoc99_scanf(i8* nocapture noundef readonly, ...) local_unnamed_addr #2

; Function Attrs: argmemonly mustprogress nofree nounwind readonly willreturn
declare i64 @strlen(i8* nocapture) local_unnamed_addr #3

; Function Attrs: nofree nounwind
declare noundef i32 @printf(i8* nocapture noundef readonly, ...) local_unnamed_addr #2

; Function Attrs: argmemonly mustprogress nofree nosync nounwind willreturn
declare void @llvm.lifetime.end.p0i8(i64 immarg, i8* nocapture) #1

; Function Attrs: argmemonly nofree nounwind willreturn writeonly
declare void @llvm.memset.p0i8.i64(i8* nocapture writeonly, i8, i64, i1 immarg) #4


!llvm.module.flags = !{!0, !1, !2, !3}
!llvm.ident = !{!4}

!0 = !{i32 1, !"wchar_size", i32 4}
!1 = !{i32 7, !"PIC Level", i32 2}
!2 = !{i32 7, !"PIE Level", i32 2}
!3 = !{i32 7, !"uwtable", i32 1}
!4 = !{!"clang version 13.0.0"}
!5 = !{!6, !6, i64 0}
!6 = !{!"omnipotent char", !7, i64 0}
!7 = !{!"Simple C/C++ TBAA"}
!8 = distinct !{!8, !9}
!9 = !{!"llvm.loop.mustprogress"}
!10 = distinct !{!10, !9}
